target datalayout = "e-m:e-p270:32:32-p271:32:32-p272:64:64-i64:64-i128:128-f80:128-n8:16:32:64-S128"
target triple = "x86_64-pc-linux-gnu"

%struct.MRef = type { i64 }
%struct.SBuf = type { ptr, ptr, ptr, %struct.MRef }

; Function Attrs: alwaysinline nounwind uwtable
define internal ptr @lj_buf_more(ptr noundef %0, i32 noundef %1) #5 {
  %3 = alloca ptr, align 8
  %4 = alloca ptr, align 8
  %5 = alloca i32, align 4
  store ptr %0, ptr %4, align 8, !tbaa !40
  store i32 %1, ptr %5, align 4, !tbaa !17
  %6 = load i32, ptr %5, align 4, !tbaa !17
  %7 = load ptr, ptr %4, align 8, !tbaa !40
  %8 = getelementptr inbounds nuw %struct.SBuf, ptr %7, i32 0, i32 1
  %9 = load ptr, ptr %8, align 8, !tbaa !48
  %10 = load ptr, ptr %4, align 8, !tbaa !40
  %11 = getelementptr inbounds nuw %struct.SBuf, ptr %10, i32 0, i32 0
  %12 = load ptr, ptr %11, align 8, !tbaa !42
  %13 = ptrtoint ptr %9 to i64
  %14 = ptrtoint ptr %12 to i64
  %15 = sub i64 %13, %14
  %16 = trunc i64 %15 to i32
  %17 = icmp ugt i32 %6, %16
  %18 = xor i1 %17, true
  %19 = xor i1 %18, true
  %20 = zext i1 %19 to i32
  %21 = sext i32 %20 to i64
  %22 = call i64 @llvm.expect.i64(i64 %21, i64 0)
  %23 = icmp ne i64 %22, 0
  br i1 %23, label %24, label %28

24:                                               ; preds = %2
  %25 = load ptr, ptr %4, align 8, !tbaa !40
  %26 = load i32, ptr %5, align 4, !tbaa !17
  %27 = call ptr @lj_buf_more2(ptr noundef %25, i32 noundef %26)
  store ptr %27, ptr %3, align 8
  br label %32

28:                                               ; preds = %2
  %29 = load ptr, ptr %4, align 8, !tbaa !40
  %30 = getelementptr inbounds nuw %struct.SBuf, ptr %29, i32 0, i32 0
  %31 = load ptr, ptr %30, align 8, !tbaa !42
  store ptr %31, ptr %3, align 8
  br label %32

32:                                               ; preds = %28, %24
  %33 = load ptr, ptr %3, align 8
  ret ptr %33
}

; Function Attrs: nounwind uwtable
define hidden ptr @lj_strfmt_putfchar(ptr noundef %0, i32 noundef %1, i32 noundef %2) #0 {
  %4 = alloca ptr, align 8
  %5 = alloca i32, align 4
  %6 = alloca i32, align 4
  %7 = alloca i32, align 4
  %8 = alloca ptr, align 8
  store ptr %0, ptr %4, align 8, !tbaa !40
  store i32 %1, ptr %5, align 4, !tbaa !17
  store i32 %2, ptr %6, align 4, !tbaa !17
  call void @llvm.lifetime.start.p0(i64 4, ptr %7) #10
  %9 = load i32, ptr %5, align 4, !tbaa !17
  %10 = lshr i32 %9, 16
  %11 = and i32 %10, 255
  store i32 %11, ptr %7, align 4, !tbaa !17
  call void @llvm.lifetime.start.p0(i64 8, ptr %8) #10
  %12 = load ptr, ptr %4, align 8, !tbaa !40
  %13 = load i32, ptr %7, align 4, !tbaa !17
  %14 = icmp ugt i32 %13, 1
  br i1 %14, label %15, label %17

15:                                               ; preds = %3
  %16 = load i32, ptr %7, align 4, !tbaa !17
  br label %18

17:                                               ; preds = %3
  br label %18

18:                                               ; preds = %17, %15
  %19 = phi i32 [ %16, %15 ], [ 1, %17 ]
  %20 = call ptr @lj_buf_more(ptr noundef %12, i32 noundef %19)
  store ptr %20, ptr %8, align 8, !tbaa !13
  %21 = load i32, ptr %5, align 4, !tbaa !17
  %22 = and i32 %21, 256
  %23 = icmp ne i32 %22, 0
  br i1 %23, label %24, label %29

24:                                               ; preds = %18
  %25 = load i32, ptr %6, align 4, !tbaa !17
  %26 = trunc i32 %25 to i8
  %27 = load ptr, ptr %8, align 8, !tbaa !13
  %28 = getelementptr inbounds nuw i8, ptr %27, i32 1
  store ptr %28, ptr %8, align 8, !tbaa !13
  store i8 %26, ptr %27, align 1, !tbaa !16
  br label %29

29:                                               ; preds = %24, %18
  br label %30

30:                                               ; preds = %34, %29
  %31 = load i32, ptr %7, align 4, !tbaa !17
  %32 = add i32 %31, -1
  store i32 %32, ptr %7, align 4, !tbaa !17
  %33 = icmp ugt i32 %31, 1
  br i1 %33, label %34, label %37

34:                                               ; preds = %30
  %35 = load ptr, ptr %8, align 8, !tbaa !13
  %36 = getelementptr inbounds nuw i8, ptr %35, i32 1
  store ptr %36, ptr %8, align 8, !tbaa !13
  store i8 32, ptr %35, align 1, !tbaa !16
  br label %30, !llvm.loop !54

37:                                               ; preds = %30
  %38 = load i32, ptr %5, align 4, !tbaa !17
  %39 = and i32 %38, 256
  %40 = icmp ne i32 %39, 0
  br i1 %40, label %46, label %41

41:                                               ; preds = %37
  %42 = load i32, ptr %6, align 4, !tbaa !17
  %43 = trunc i32 %42 to i8
  %44 = load ptr, ptr %8, align 8, !tbaa !13
  %45 = getelementptr inbounds nuw i8, ptr %44, i32 1
  store ptr %45, ptr %8, align 8, !tbaa !13
  store i8 %43, ptr %44, align 1, !tbaa !16
  br label %46

46:                                               ; preds = %41, %37
  %47 = load ptr, ptr %8, align 8, !tbaa !13
  %48 = load ptr, ptr %4, align 8, !tbaa !40
  %49 = getelementptr inbounds nuw %struct.SBuf, ptr %48, i32 0, i32 0
  store ptr %47, ptr %49, align 8, !tbaa !42
  %50 = load ptr, ptr %4, align 8, !tbaa !40
  call void @llvm.lifetime.end.p0(i64 8, ptr %8) #10
  call void @llvm.lifetime.end.p0(i64 4, ptr %7) #10
  ret ptr %50
}