; Function Attrs: nounwind uwtable
define hidden noundef ptr @lj_strfmt_putfchar(ptr noundef returned %0, i32 noundef %1, i32 noundef %2) local_unnamed_addr #5 {
  %4 = lshr i32 %1, 16
  %5 = and i32 %4, 255
  %6 = tail call i32 @llvm.umax.i32(i32 %5, i32 1)
  %7 = getelementptr inbounds nuw i8, ptr %0, i64 8
  %8 = load ptr, ptr %7, align 8, !tbaa !35
  %9 = load ptr, ptr %0, align 8, !tbaa !34
  %10 = ptrtoint ptr %8 to i64
  %11 = ptrtoint ptr %9 to i64
  %12 = sub i64 %10, %11
  %13 = trunc i64 %12 to i32
  %14 = icmp ugt i32 %6, %13
  br i1 %14, label %15, label %lj_buf_more.exit, !prof !36

15:                                               ; preds = %3
  %16 = tail call ptr @lj_buf_more2(ptr noundef nonnull %0, i32 noundef %6) #13
  br label %lj_buf_more.exit

lj_buf_more.exit:                                 ; preds = %3, %15
  %.0.i = phi ptr [ %16, %15 ], [ %9, %3 ]
  %17 = and i32 %1, 256
  %.not = icmp eq i32 %17, 0
  br i1 %.not, label %21, label %18

18:                                               ; preds = %lj_buf_more.exit
  %19 = trunc i32 %2 to i8
  %20 = getelementptr inbounds nuw i8, ptr %.0.i, i64 1
  store i8 %19, ptr %.0.i, align 1, !tbaa !13
  br label %21

21:                                               ; preds = %18, %lj_buf_more.exit
  %.0 = phi ptr [ %20, %18 ], [ %.0.i, %lj_buf_more.exit ]
  %22 = icmp samesign ugt i32 %5, 1
  br i1 %22, label %.lr.ph.preheader, label %._crit_edge

.lr.ph.preheader:                                 ; preds = %21
  %23 = add nsw i32 %5, -1
  %24 = zext nneg i32 %23 to i64
  tail call void @llvm.memset.p0.i64(ptr align 1 %.0, i8 32, i64 %24, i1 false), !tbaa !13
  %25 = zext nneg i32 %5 to i64
  %26 = getelementptr i8, ptr %.0, i64 %25
  %scevgep = getelementptr i8, ptr %26, i64 -1
  br label %._crit_edge

._crit_edge:                                      ; preds = %.lr.ph.preheader, %21
  %.1.lcssa = phi ptr [ %.0, %21 ], [ %scevgep, %.lr.ph.preheader ]
  br i1 %.not, label %27, label %30

27:                                               ; preds = %._crit_edge
  %28 = trunc i32 %2 to i8
  %29 = getelementptr inbounds nuw i8, ptr %.1.lcssa, i64 1
  store i8 %28, ptr %.1.lcssa, align 1, !tbaa !13
  br label %30

30:                                               ; preds = %27, %._crit_edge
  %.2 = phi ptr [ %.1.lcssa, %._crit_edge ], [ %29, %27 ]
  store ptr %.2, ptr %0, align 8, !tbaa !34
  ret ptr %0
}